; ModuleID = '49/881.c'
source_filename = "49/881.c"
target datalayout = "e-m:e-p270:32:32-p271:32:32-p272:64:64-i64:64-f80:128-n8:16:32:64-S128"
target triple = "x86_64-pc-linux-gnu"

@.str = private unnamed_addr constant [3 x i8] c"%s\00", align 1
@.str.1 = private unnamed_addr constant [2 x i8] c"\0A\00", align 1

; Function Attrs: noinline nounwind uwtable
define dso_local i32 @main() #0 {
  %1 = alloca i32, align 4
  %2 = alloca [501 x i8], align 16
  %3 = alloca [2000 x [501 x i8]], align 16
  %4 = alloca i32, align 4
  %5 = alloca i32, align 4
  %6 = alloca i32, align 4
  %7 = alloca i32, align 4
  %8 = alloca i32, align 4
  %9 = alloca i32, align 4
  %10 = alloca i32, align 4
  store i32 0, i32* %1, align 4
  store i32 0, i32* %10, align 4
  %11 = getelementptr inbounds [501 x i8], [501 x i8]* %2, i64 0, i64 0
  %12 = call i32 (i8*, ...) @__isoc99_scanf(i8* getelementptr inbounds ([3 x i8], [3 x i8]* @.str, i64 0, i64 0), i8* %11)
  %13 = getelementptr inbounds [501 x i8], [501 x i8]* %2, i64 0, i64 0
  %14 = call i64 @strlen(i8* %13) #3
  %15 = trunc i64 %14 to i32
  store i32 %15, i32* %7, align 4
  store i32 0, i32* %4, align 4
  br label %16

16:                                               ; preds = %132, %0
  %17 = load i32, i32* %4, align 4
  %18 = load i32, i32* %7, align 4
  %19 = sub nsw i32 %18, 1
  %20 = icmp sle i32 %17, %19
  br i1 %20, label %21, label %135

21:                                               ; preds = %16
  %22 = load i32, i32* %4, align 4
  %23 = add nsw i32 %22, 1
  store i32 %23, i32* %5, align 4
  br label %24

24:                                               ; preds = %128, %21
  %25 = load i32, i32* %5, align 4
  %26 = load i32, i32* %7, align 4
  %27 = sub nsw i32 %26, 1
  %28 = icmp sle i32 %25, %27
  br i1 %28, label %29, label %131

29:                                               ; preds = %24
  %30 = load i32, i32* %4, align 4
  %31 = sext i32 %30 to i64
  %32 = getelementptr inbounds [501 x i8], [501 x i8]* %2, i64 0, i64 %31
  %33 = load i8, i8* %32, align 1
  %34 = sext i8 %33 to i32
  %35 = load i32, i32* %5, align 4
  %36 = sext i32 %35 to i64
  %37 = getelementptr inbounds [501 x i8], [501 x i8]* %2, i64 0, i64 %36
  %38 = load i8, i8* %37, align 1
  %39 = sext i8 %38 to i32
  %40 = icmp eq i32 %34, %39
  br i1 %40, label %41, label %127

41:                                               ; preds = %29
  store i32 1, i32* %6, align 4
  br label %42

42:                                               ; preds = %123, %41
  %43 = load i32, i32* %6, align 4
  %44 = load i32, i32* %5, align 4
  %45 = load i32, i32* %4, align 4
  %46 = sub nsw i32 %44, %45
  %47 = add nsw i32 %46, 1
  %48 = sdiv i32 %47, 2
  %49 = icmp sle i32 %43, %48
  br i1 %49, label %50, label %126

50:                                               ; preds = %42
  %51 = load i32, i32* %4, align 4
  %52 = load i32, i32* %6, align 4
  %53 = add nsw i32 %51, %52
  %54 = sext i32 %53 to i64
  %55 = getelementptr inbounds [501 x i8], [501 x i8]* %2, i64 0, i64 %54
  %56 = load i8, i8* %55, align 1
  %57 = sext i8 %56 to i32
  %58 = load i32, i32* %5, align 4
  %59 = load i32, i32* %6, align 4
  %60 = sub nsw i32 %58, %59
  %61 = sext i32 %60 to i64
  %62 = getelementptr inbounds [501 x i8], [501 x i8]* %2, i64 0, i64 %61
  %63 = load i8, i8* %62, align 1
  %64 = sext i8 %63 to i32
  %65 = icmp ne i32 %57, %64
  br i1 %65, label %66, label %67

66:                                               ; preds = %50
  br label %126

67:                                               ; preds = %50
  %68 = load i32, i32* %4, align 4
  %69 = load i32, i32* %6, align 4
  %70 = add nsw i32 %68, %69
  %71 = sext i32 %70 to i64
  %72 = getelementptr inbounds [501 x i8], [501 x i8]* %2, i64 0, i64 %71
  %73 = load i8, i8* %72, align 1
  %74 = sext i8 %73 to i32
  %75 = load i32, i32* %5, align 4
  %76 = load i32, i32* %6, align 4
  %77 = sub nsw i32 %75, %76
  %78 = sext i32 %77 to i64
  %79 = getelementptr inbounds [501 x i8], [501 x i8]* %2, i64 0, i64 %78
  %80 = load i8, i8* %79, align 1
  %81 = sext i8 %80 to i32
  %82 = icmp eq i32 %74, %81
  br i1 %82, label %83, label %121

83:                                               ; preds = %67
  %84 = load i32, i32* %6, align 4
  %85 = load i32, i32* %5, align 4
  %86 = load i32, i32* %4, align 4
  %87 = sub nsw i32 %85, %86
  %88 = add nsw i32 %87, 1
  %89 = sdiv i32 %88, 2
  %90 = icmp eq i32 %84, %89
  br i1 %90, label %91, label %121

91:                                               ; preds = %83
  store i32 0, i32* %9, align 4
  %92 = load i32, i32* %10, align 4
  %93 = add nsw i32 %92, 1
  store i32 %93, i32* %10, align 4
  %94 = load i32, i32* %4, align 4
  store i32 %94, i32* %8, align 4
  br label %95

95:                                               ; preds = %111, %91
  %96 = load i32, i32* %8, align 4
  %97 = load i32, i32* %5, align 4
  %98 = icmp sle i32 %96, %97
  br i1 %98, label %99, label %114

99:                                               ; preds = %95
  %100 = load i32, i32* %8, align 4
  %101 = sext i32 %100 to i64
  %102 = getelementptr inbounds [501 x i8], [501 x i8]* %2, i64 0, i64 %101
  %103 = load i8, i8* %102, align 1
  %104 = load i32, i32* %10, align 4
  %105 = sext i32 %104 to i64
  %106 = getelementptr inbounds [2000 x [501 x i8]], [2000 x [501 x i8]]* %3, i64 0, i64 %105
  %107 = load i32, i32* %9, align 4
  %108 = add nsw i32 %107, 1
  store i32 %108, i32* %9, align 4
  %109 = sext i32 %107 to i64
  %110 = getelementptr inbounds [501 x i8], [501 x i8]* %106, i64 0, i64 %109
  store i8 %103, i8* %110, align 1
  br label %111

111:                                              ; preds = %99
  %112 = load i32, i32* %8, align 4
  %113 = add nsw i32 %112, 1
  store i32 %113, i32* %8, align 4
  br label %95

114:                                              ; preds = %95
  %115 = load i32, i32* %10, align 4
  %116 = sext i32 %115 to i64
  %117 = getelementptr inbounds [2000 x [501 x i8]], [2000 x [501 x i8]]* %3, i64 0, i64 %116
  %118 = load i32, i32* %9, align 4
  %119 = sext i32 %118 to i64
  %120 = getelementptr inbounds [501 x i8], [501 x i8]* %117, i64 0, i64 %119
  store i8 0, i8* %120, align 1
  br label %121

121:                                              ; preds = %114, %83, %67
  br label %122

122:                                              ; preds = %121
  br label %123

123:                                              ; preds = %122
  %124 = load i32, i32* %6, align 4
  %125 = add nsw i32 %124, 1
  store i32 %125, i32* %6, align 4
  br label %42

126:                                              ; preds = %66, %42
  br label %127

127:                                              ; preds = %126, %29
  br label %128

128:                                              ; preds = %127
  %129 = load i32, i32* %5, align 4
  %130 = add nsw i32 %129, 1
  store i32 %130, i32* %5, align 4
  br label %24

131:                                              ; preds = %24
  br label %132

132:                                              ; preds = %131
  %133 = load i32, i32* %4, align 4
  %134 = add nsw i32 %133, 1
  store i32 %134, i32* %4, align 4
  br label %16

135:                                              ; preds = %16
  store i32 2, i32* %4, align 4
  br label %136

136:                                              ; preds = %166, %135
  %137 = load i32, i32* %4, align 4
  %138 = load i32, i32* %7, align 4
  %139 = icmp sle i32 %137, %138
  br i1 %139, label %140, label %169

140:                                              ; preds = %136
  store i32 1, i32* %5, align 4
  br label %141

141:                                              ; preds = %162, %140
  %142 = load i32, i32* %5, align 4
  %143 = load i32, i32* %10, align 4
  %144 = icmp sle i32 %142, %143
  br i1 %144, label %145, label %165

145:                                              ; preds = %141
  %146 = load i32, i32* %5, align 4
  %147 = sext i32 %146 to i64
  %148 = getelementptr inbounds [2000 x [501 x i8]], [2000 x [501 x i8]]* %3, i64 0, i64 %147
  %149 = getelementptr inbounds [501 x i8], [501 x i8]* %148, i64 0, i64 0
  %150 = call i64 @strlen(i8* %149) #3
  %151 = load i32, i32* %4, align 4
  %152 = sext i32 %151 to i64
  %153 = icmp eq i64 %150, %152
  br i1 %153, label %154, label %161

154:                                              ; preds = %145
  %155 = load i32, i32* %5, align 4
  %156 = sext i32 %155 to i64
  %157 = getelementptr inbounds [2000 x [501 x i8]], [2000 x [501 x i8]]* %3, i64 0, i64 %156
  %158 = getelementptr inbounds [501 x i8], [501 x i8]* %157, i64 0, i64 0
  %159 = call i32 (i8*, ...) @printf(i8* getelementptr inbounds ([3 x i8], [3 x i8]* @.str, i64 0, i64 0), i8* %158)
  %160 = call i32 (i8*, ...) @printf(i8* getelementptr inbounds ([2 x i8], [2 x i8]* @.str.1, i64 0, i64 0))
  br label %161

161:                                              ; preds = %154, %145
  br label %162

162:                                              ; preds = %161
  %163 = load i32, i32* %5, align 4
  %164 = add nsw i32 %163, 1
  store i32 %164, i32* %5, align 4
  br label %141

165:                                              ; preds = %141
  br label %166

166:                                              ; preds = %165
  %167 = load i32, i32* %4, align 4
  %168 = add nsw i32 %167, 1
  store i32 %168, i32* %4, align 4
  br label %136

169:                                              ; preds = %136
  %170 = load i32, i32* %1, align 4
  ret i32 %170
}

declare dso_local i32 @__isoc99_scanf(i8*, ...) #1

; Function Attrs: nounwind readonly
declare dso_local i64 @strlen(i8*) #2

declare dso_local i32 @printf(i8*, ...) #1


!llvm.module.flags = !{!0}
!llvm.ident = !{!1}

!0 = !{i32 1, !"wchar_size", i32 4}
!1 = !{!"clang version 10.0.0-4ubuntu1 "}
